target datalayout = "e-m:e-p270:32:32-p271:32:32-p272:64:64-i64:64-i128:128-f80:128-n8:16:32:64-S128"
target triple = "x86_64-pc-linux-gnu"

%"class.cv::tinyxml2::StrPair" = type { i32, ptr, ptr }
%"class.cv::tinyxml2::XMLDocument" = type { %"class.cv::tinyxml2::XMLNode", i8, i8, i32, i32, ptr, ptr, ptr, %"class.cv::tinyxml2::MemPoolT", %"class.cv::tinyxml2::MemPoolT.0", %"class.cv::tinyxml2::MemPoolT.2", %"class.cv::tinyxml2::MemPoolT.4" }
%"class.cv::tinyxml2::XMLNode" = type { ptr, ptr, ptr, %"class.cv::tinyxml2::StrPair", ptr, ptr, ptr, ptr, ptr }
%"class.cv::tinyxml2::MemPoolT" = type { %"class.cv::tinyxml2::MemPool", %"class.cv::tinyxml2::DynArray", ptr, i32, i32, i32, i32 }
%"class.cv::tinyxml2::MemPool" = type { ptr }
%"class.cv::tinyxml2::DynArray" = type { ptr, [10 x ptr], i32, i32 }
%"class.cv::tinyxml2::MemPoolT.0" = type { %"class.cv::tinyxml2::MemPool", %"class.cv::tinyxml2::DynArray.1", ptr, i32, i32, i32, i32 }
%"class.cv::tinyxml2::DynArray.1" = type { ptr, [10 x ptr], i32, i32 }
%"class.cv::tinyxml2::MemPoolT.2" = type { %"class.cv::tinyxml2::MemPool", %"class.cv::tinyxml2::DynArray.3", ptr, i32, i32, i32, i32 }
%"class.cv::tinyxml2::DynArray.3" = type { ptr, [10 x ptr], i32, i32 }
%"class.cv::tinyxml2::MemPoolT.4" = type { %"class.cv::tinyxml2::MemPool", %"class.cv::tinyxml2::DynArray.5", ptr, i32, i32, i32, i32 }
%"class.cv::tinyxml2::DynArray.5" = type { ptr, [10 x ptr], i32, i32 }

@.str.16 = private unnamed_addr constant [2 x i8] c">\00", align 1

; Function Attrs: mustprogress nounwind uwtable
define hidden void @_ZN2cv8tinyxml27StrPair5ResetEv(ptr noundef nonnull align 8 dereferenceable(24) %0) #0 align 2 {
  %2 = alloca ptr, align 8
  store ptr %0, ptr %2, align 8, !tbaa !3
  %3 = load ptr, ptr %2, align 8
  %4 = getelementptr inbounds nuw %"class.cv::tinyxml2::StrPair", ptr %3, i32 0, i32 0
  %5 = load i32, ptr %4, align 8, !tbaa !8
  %6 = and i32 %5, 512
  %7 = icmp ne i32 %6, 0
  br i1 %7, label %8, label %14

8:                                                ; preds = %1
  %9 = getelementptr inbounds nuw %"class.cv::tinyxml2::StrPair", ptr %3, i32 0, i32 1
  %10 = load ptr, ptr %9, align 8, !tbaa !12
  %11 = icmp eq ptr %10, null
  br i1 %11, label %13, label %12

12:                                               ; preds = %8
  call void @_ZdaPv(ptr noundef %10) #16
  br label %13

13:                                               ; preds = %12, %8
  br label %14

14:                                               ; preds = %13, %1
  %15 = getelementptr inbounds nuw %"class.cv::tinyxml2::StrPair", ptr %3, i32 0, i32 0
  store i32 0, ptr %15, align 8, !tbaa !8
  %16 = getelementptr inbounds nuw %"class.cv::tinyxml2::StrPair", ptr %3, i32 0, i32 1
  store ptr null, ptr %16, align 8, !tbaa !12
  %17 = getelementptr inbounds nuw %"class.cv::tinyxml2::StrPair", ptr %3, i32 0, i32 2
  store ptr null, ptr %17, align 8, !tbaa !13
  ret void
}

; Function Attrs: mustprogress nounwind uwtable
define linkonce_odr hidden void @_ZN2cv8tinyxml27StrPair3SetEPcS2_i(ptr noundef nonnull align 8 dereferenceable(24) %0, ptr noundef %1, ptr noundef %2, i32 noundef %3) #0 comdat align 2 {
  %5 = alloca ptr, align 8
  %6 = alloca ptr, align 8
  %7 = alloca ptr, align 8
  %8 = alloca i32, align 4
  store ptr %0, ptr %5, align 8, !tbaa !3
  store ptr %1, ptr %6, align 8, !tbaa !14
  store ptr %2, ptr %7, align 8, !tbaa !14
  store i32 %3, ptr %8, align 4, !tbaa !15
  %9 = load ptr, ptr %5, align 8
  call void @_ZN2cv8tinyxml27StrPair5ResetEv(ptr noundef nonnull align 8 dereferenceable(24) %9)
  %10 = load ptr, ptr %6, align 8, !tbaa !14
  %11 = getelementptr inbounds nuw %"class.cv::tinyxml2::StrPair", ptr %9, i32 0, i32 1
  store ptr %10, ptr %11, align 8, !tbaa !12
  %12 = load ptr, ptr %7, align 8, !tbaa !14
  %13 = getelementptr inbounds nuw %"class.cv::tinyxml2::StrPair", ptr %9, i32 0, i32 2
  store ptr %12, ptr %13, align 8, !tbaa !13
  %14 = load i32, ptr %8, align 4, !tbaa !15
  %15 = or i32 %14, 256
  %16 = getelementptr inbounds nuw %"class.cv::tinyxml2::StrPair", ptr %9, i32 0, i32 0
  store i32 %15, ptr %16, align 8, !tbaa !8
  ret void
}

; Function Attrs: mustprogress nounwind uwtable
define hidden void @_ZN2cv8tinyxml211XMLDocument8SetErrorENS0_8XMLErrorEPKcS4_(ptr noundef nonnull align 8 dereferenceable(640) %0, i32 noundef %1, ptr noundef %2, ptr noundef %3) #0 align 2 {
  %5 = alloca ptr, align 8
  %6 = alloca i32, align 4
  %7 = alloca ptr, align 8
  %8 = alloca ptr, align 8
  store ptr %0, ptr %5, align 8, !tbaa !50
  store i32 %1, ptr %6, align 4, !tbaa !137
  store ptr %2, ptr %7, align 8, !tbaa !14
  store ptr %3, ptr %8, align 8, !tbaa !14
  %9 = load ptr, ptr %5, align 8
  %10 = load i32, ptr %6, align 4, !tbaa !137
  %11 = getelementptr inbounds nuw %"class.cv::tinyxml2::XMLDocument", ptr %9, i32 0, i32 3
  store i32 %10, ptr %11, align 4, !tbaa !129
  %12 = load ptr, ptr %7, align 8, !tbaa !14
  %13 = getelementptr inbounds nuw %"class.cv::tinyxml2::XMLDocument", ptr %9, i32 0, i32 5
  store ptr %12, ptr %13, align 8, !tbaa !138
  %14 = load ptr, ptr %8, align 8, !tbaa !14
  %15 = getelementptr inbounds nuw %"class.cv::tinyxml2::XMLDocument", ptr %9, i32 0, i32 6
  store ptr %14, ptr %15, align 8, !tbaa !139
  ret void
}

; Function Attrs: mustprogress uwtable
define hidden noundef ptr @_ZN2cv8tinyxml27StrPair9ParseTextEPcPKci(ptr noundef nonnull align 8 dereferenceable(24) %0, ptr noundef %1, ptr noundef %2, i32 noundef %3) #3 align 2 {
  %5 = alloca ptr, align 8
  %6 = alloca ptr, align 8
  %7 = alloca ptr, align 8
  %8 = alloca ptr, align 8
  %9 = alloca i32, align 4
  %10 = alloca ptr, align 8
  %11 = alloca i8, align 1
  %12 = alloca i64, align 8
  %13 = alloca i32, align 4
  store ptr %0, ptr %6, align 8, !tbaa !3
  store ptr %1, ptr %7, align 8, !tbaa !14
  store ptr %2, ptr %8, align 8, !tbaa !14
  store i32 %3, ptr %9, align 4, !tbaa !15
  %14 = load ptr, ptr %6, align 8
  call void @llvm.lifetime.start.p0(i64 8, ptr %10) #17
  %15 = load ptr, ptr %7, align 8, !tbaa !14
  store ptr %15, ptr %10, align 8, !tbaa !14
  call void @llvm.lifetime.start.p0(i64 1, ptr %11) #17
  %16 = load ptr, ptr %8, align 8, !tbaa !14
  %17 = load i8, ptr %16, align 1, !tbaa !18
  store i8 %17, ptr %11, align 1, !tbaa !18
  call void @llvm.lifetime.start.p0(i64 8, ptr %12) #17
  %18 = load ptr, ptr %8, align 8, !tbaa !14
  %19 = call i64 @strlen(ptr noundef %18) #18
  store i64 %19, ptr %12, align 8, !tbaa !16
  br label %20

20:                                               ; preds = %44, %4
  %21 = load ptr, ptr %7, align 8, !tbaa !14
  %22 = load i8, ptr %21, align 1, !tbaa !18
  %23 = icmp ne i8 %22, 0
  br i1 %23, label %24, label %47

24:                                               ; preds = %20
  %25 = load ptr, ptr %7, align 8, !tbaa !14
  %26 = load i8, ptr %25, align 1, !tbaa !18
  %27 = sext i8 %26 to i32
  %28 = load i8, ptr %11, align 1, !tbaa !18
  %29 = sext i8 %28 to i32
  %30 = icmp eq i32 %27, %29
  br i1 %30, label %31, label %44

31:                                               ; preds = %24
  %32 = load ptr, ptr %7, align 8, !tbaa !14
  %33 = load ptr, ptr %8, align 8, !tbaa !14
  %34 = load i64, ptr %12, align 8, !tbaa !16
  %35 = call i32 @strncmp(ptr noundef %32, ptr noundef %33, i64 noundef %34) #18
  %36 = icmp eq i32 %35, 0
  br i1 %36, label %37, label %44

37:                                               ; preds = %31
  %38 = load ptr, ptr %10, align 8, !tbaa !14
  %39 = load ptr, ptr %7, align 8, !tbaa !14
  %40 = load i32, ptr %9, align 4, !tbaa !15
  call void @_ZN2cv8tinyxml27StrPair3SetEPcS2_i(ptr noundef nonnull align 8 dereferenceable(24) %14, ptr noundef %38, ptr noundef %39, i32 noundef %40)
  %41 = load ptr, ptr %7, align 8, !tbaa !14
  %42 = load i64, ptr %12, align 8, !tbaa !16
  %43 = getelementptr inbounds nuw i8, ptr %41, i64 %42
  store ptr %43, ptr %5, align 8
  store i32 1, ptr %13, align 4
  br label %48

44:                                               ; preds = %31, %24
  %45 = load ptr, ptr %7, align 8, !tbaa !14
  %46 = getelementptr inbounds nuw i8, ptr %45, i32 1
  store ptr %46, ptr %7, align 8, !tbaa !14
  br label %20, !llvm.loop !19

47:                                               ; preds = %20
  store ptr null, ptr %5, align 8
  store i32 1, ptr %13, align 4
  br label %48

48:                                               ; preds = %47, %37
  call void @llvm.lifetime.end.p0(i64 8, ptr %12) #17
  call void @llvm.lifetime.end.p0(i64 1, ptr %11) #17
  call void @llvm.lifetime.end.p0(i64 8, ptr %10) #17
  %49 = load ptr, ptr %5, align 8
  ret ptr %49
}

; Function Attrs: mustprogress uwtable
define hidden noundef ptr @_ZN2cv8tinyxml210XMLUnknown9ParseDeepEPcPNS0_7StrPairE(ptr noundef nonnull align 8 dereferenceable(88) %0, ptr noundef %1, ptr noundef %2) unnamed_addr #3 align 2 {
  %4 = alloca ptr, align 8
  %5 = alloca ptr, align 8
  %6 = alloca ptr, align 8
  %7 = alloca ptr, align 8
  store ptr %0, ptr %4, align 8, !tbaa !149
  store ptr %1, ptr %5, align 8, !tbaa !14
  store ptr %2, ptr %6, align 8, !tbaa !3
  %8 = load ptr, ptr %4, align 8
  call void @llvm.lifetime.start.p0(i64 8, ptr %7) #17
  %9 = load ptr, ptr %5, align 8, !tbaa !14
  store ptr %9, ptr %7, align 8, !tbaa !14
  %10 = getelementptr inbounds nuw %"class.cv::tinyxml2::XMLNode", ptr %8, i32 0, i32 3
  %11 = load ptr, ptr %5, align 8, !tbaa !14
  %12 = call noundef ptr @_ZN2cv8tinyxml27StrPair9ParseTextEPcPKci(ptr noundef nonnull align 8 dereferenceable(24) %10, ptr noundef %11, ptr noundef @.str.16, i32 noundef 2)
  store ptr %12, ptr %5, align 8, !tbaa !14
  %13 = load ptr, ptr %5, align 8, !tbaa !14
  %14 = icmp ne ptr %13, null
  br i1 %14, label %19, label %15

15:                                               ; preds = %3
  %16 = getelementptr inbounds nuw %"class.cv::tinyxml2::XMLNode", ptr %8, i32 0, i32 1
  %17 = load ptr, ptr %16, align 8, !tbaa !115
  %18 = load ptr, ptr %7, align 8, !tbaa !14
  call void @_ZN2cv8tinyxml211XMLDocument8SetErrorENS0_8XMLErrorEPKcS4_(ptr noundef nonnull align 8 dereferenceable(640) %17, i32 noundef 14, ptr noundef %18, ptr noundef null)
  br label %19

19:                                               ; preds = %15, %3
  %20 = load ptr, ptr %5, align 8, !tbaa !14
  call void @llvm.lifetime.end.p0(i64 8, ptr %7) #17
  ret ptr %20
}