; Function Attrs: mustprogress nounwind uwtable
define hidden noundef ptr @_ZN2cv8tinyxml210XMLUnknown9ParseDeepEPcPNS0_7StrPairE(ptr noundef nonnull align 8 captures(none) dereferenceable(88) %0, ptr noundef %1, ptr readnone captures(none) %2) unnamed_addr #0 align 2 {
  %4 = getelementptr inbounds nuw i8, ptr %0, i64 24
  %5 = load i8, ptr %1, align 1, !tbaa !12
  %.not19.i = icmp eq i8 %5, 0
  br i1 %.not19.i, label %_ZN2cv8tinyxml27StrPair9ParseTextEPcPKci.exit.thread, label %.lr.ph.i

.lr.ph.i:                                         ; preds = %3, %15
  %lhsc = phi i8 [ %17, %15 ], [ %5, %3 ]
  %.01620.i = phi ptr [ %16, %15 ], [ %1, %3 ]
  %6 = icmp eq i8 %lhsc, 62
  br i1 %6, label %7, label %15

7:                                                ; preds = %.lr.ph.i
  %8 = load i32, ptr %4, align 8, !tbaa !3
  %9 = and i32 %8, 512
  %.not.i.i.i = icmp eq i32 %9, 0
  br i1 %.not.i.i.i, label %_ZN2cv8tinyxml27StrPair9ParseTextEPcPKci.exit, label %10

10:                                               ; preds = %7
  %11 = getelementptr inbounds nuw i8, ptr %0, i64 32
  %12 = load ptr, ptr %11, align 8, !tbaa !10
  %13 = icmp eq ptr %12, null
  br i1 %13, label %_ZN2cv8tinyxml27StrPair9ParseTextEPcPKci.exit, label %14

14:                                               ; preds = %10
  tail call void @_ZdaPv(ptr noundef nonnull %12) #23
  br label %_ZN2cv8tinyxml27StrPair9ParseTextEPcPKci.exit

15:                                               ; preds = %.lr.ph.i
  %16 = getelementptr inbounds nuw i8, ptr %.01620.i, i64 1
  %17 = load i8, ptr %16, align 1, !tbaa !12
  %.not.i = icmp eq i8 %17, 0
  br i1 %.not.i, label %_ZN2cv8tinyxml27StrPair9ParseTextEPcPKci.exit.thread, label %.lr.ph.i, !llvm.loop !13

_ZN2cv8tinyxml27StrPair9ParseTextEPcPKci.exit:    ; preds = %7, %10, %14
  %18 = getelementptr inbounds nuw i8, ptr %0, i64 32
  store ptr %1, ptr %18, align 8, !tbaa !10
  %19 = getelementptr inbounds nuw i8, ptr %0, i64 40
  store ptr %.01620.i, ptr %19, align 8, !tbaa !11
  store i32 258, ptr %4, align 8, !tbaa !3
  %20 = getelementptr inbounds nuw i8, ptr %.01620.i, i64 1
  br label %26

_ZN2cv8tinyxml27StrPair9ParseTextEPcPKci.exit.thread: ; preds = %15, %3
  %21 = getelementptr inbounds nuw i8, ptr %0, i64 8
  %22 = load ptr, ptr %21, align 8, !tbaa !33
  %23 = getelementptr inbounds nuw i8, ptr %22, i64 92
  store i32 14, ptr %23, align 4, !tbaa !106
  %24 = getelementptr inbounds nuw i8, ptr %22, i64 104
  store ptr %1, ptr %24, align 8, !tbaa !116
  %25 = getelementptr inbounds nuw i8, ptr %22, i64 112
  store ptr null, ptr %25, align 8, !tbaa !117
  br label %26

26:                                               ; preds = %_ZN2cv8tinyxml27StrPair9ParseTextEPcPKci.exit, %_ZN2cv8tinyxml27StrPair9ParseTextEPcPKci.exit.thread
  %.0.i8 = phi ptr [ null, %_ZN2cv8tinyxml27StrPair9ParseTextEPcPKci.exit.thread ], [ %20, %_ZN2cv8tinyxml27StrPair9ParseTextEPcPKci.exit ]
  ret ptr %.0.i8
}